; Function Attrs: nounwind uwtable
define void @stbiw__write_run_data(ptr noundef readonly captures(none) %0, i32 noundef %1, i8 noundef zeroext %2) local_unnamed_addr #5 {
  %4 = alloca i8, align 1
  %5 = alloca i8, align 1
  store i8 %2, ptr %4, align 1, !tbaa !11
  call void @llvm.lifetime.start.p0(i64 1, ptr nonnull %5) #26
  %6 = trunc i32 %1 to i8
  %7 = xor i8 %6, -128
  store i8 %7, ptr %5, align 1, !tbaa !11
  %8 = load ptr, ptr %0, align 8, !tbaa !7
  %9 = getelementptr inbounds nuw i8, ptr %0, i64 8
  %10 = load ptr, ptr %9, align 8, !tbaa !10
  call void %8(ptr noundef %10, ptr noundef nonnull %5, i32 noundef 1) #26
  %11 = load ptr, ptr %0, align 8, !tbaa !7
  %12 = load ptr, ptr %9, align 8, !tbaa !10
  call void %11(ptr noundef %12, ptr noundef nonnull %4, i32 noundef 1) #26
  call void @llvm.lifetime.end.p0(i64 1, ptr nonnull %5) #26
  ret void
}